
condition:     file format elf64-x86-64


Disassembly of section .init:

0000000000001000 <_init>:
    1000:	f3 0f 1e fa          	endbr64 
    1004:	48 83 ec 08          	sub    rsp,0x8
    1008:	48 8b 05 d9 2f 00 00 	mov    rax,QWORD PTR [rip+0x2fd9]        # 3fe8 <__gmon_start__>
    100f:	48 85 c0             	test   rax,rax
    1012:	74 02                	je     1016 <_init+0x16>
    1014:	ff d0                	call   rax
    1016:	48 83 c4 08          	add    rsp,0x8
    101a:	c3                   	ret    

Disassembly of section .plt:

0000000000001020 <.plt>:
    1020:	ff 35 52 2f 00 00    	push   QWORD PTR [rip+0x2f52]        # 3f78 <_GLOBAL_OFFSET_TABLE_+0x8>
    1026:	f2 ff 25 53 2f 00 00 	bnd jmp QWORD PTR [rip+0x2f53]        # 3f80 <_GLOBAL_OFFSET_TABLE_+0x10>
    102d:	0f 1f 00             	nop    DWORD PTR [rax]
    1030:	f3 0f 1e fa          	endbr64 
    1034:	68 00 00 00 00       	push   0x0
    1039:	f2 e9 e1 ff ff ff    	bnd jmp 1020 <.plt>
    103f:	90                   	nop
    1040:	f3 0f 1e fa          	endbr64 
    1044:	68 01 00 00 00       	push   0x1
    1049:	f2 e9 d1 ff ff ff    	bnd jmp 1020 <.plt>
    104f:	90                   	nop
    1050:	f3 0f 1e fa          	endbr64 
    1054:	68 02 00 00 00       	push   0x2
    1059:	f2 e9 c1 ff ff ff    	bnd jmp 1020 <.plt>
    105f:	90                   	nop
    1060:	f3 0f 1e fa          	endbr64 
    1064:	68 03 00 00 00       	push   0x3
    1069:	f2 e9 b1 ff ff ff    	bnd jmp 1020 <.plt>
    106f:	90                   	nop
    1070:	f3 0f 1e fa          	endbr64 
    1074:	68 04 00 00 00       	push   0x4
    1079:	f2 e9 a1 ff ff ff    	bnd jmp 1020 <.plt>
    107f:	90                   	nop
    1080:	f3 0f 1e fa          	endbr64 
    1084:	68 05 00 00 00       	push   0x5
    1089:	f2 e9 91 ff ff ff    	bnd jmp 1020 <.plt>
    108f:	90                   	nop
    1090:	f3 0f 1e fa          	endbr64 
    1094:	68 06 00 00 00       	push   0x6
    1099:	f2 e9 81 ff ff ff    	bnd jmp 1020 <.plt>
    109f:	90                   	nop
    10a0:	f3 0f 1e fa          	endbr64 
    10a4:	68 07 00 00 00       	push   0x7
    10a9:	f2 e9 71 ff ff ff    	bnd jmp 1020 <.plt>
    10af:	90                   	nop

Disassembly of section .plt.got:

00000000000010b0 <__cxa_finalize@plt>:
    10b0:	f3 0f 1e fa          	endbr64 
    10b4:	f2 ff 25 0d 2f 00 00 	bnd jmp QWORD PTR [rip+0x2f0d]        # 3fc8 <__cxa_finalize@GLIBC_2.2.5>
    10bb:	0f 1f 44 00 00       	nop    DWORD PTR [rax+rax*1+0x0]

Disassembly of section .plt.sec:

00000000000010c0 <_ZNSirsERi@plt>:
    10c0:	f3 0f 1e fa          	endbr64 
    10c4:	f2 ff 25 bd 2e 00 00 	bnd jmp QWORD PTR [rip+0x2ebd]        # 3f88 <_ZNSirsERi@GLIBCXX_3.4>
    10cb:	0f 1f 44 00 00       	nop    DWORD PTR [rax+rax*1+0x0]

00000000000010d0 <__cxa_atexit@plt>:
    10d0:	f3 0f 1e fa          	endbr64 
    10d4:	f2 ff 25 b5 2e 00 00 	bnd jmp QWORD PTR [rip+0x2eb5]        # 3f90 <__cxa_atexit@GLIBC_2.2.5>
    10db:	0f 1f 44 00 00       	nop    DWORD PTR [rax+rax*1+0x0]

00000000000010e0 <_ZStlsISt11char_traitsIcEERSt13basic_ostreamIcT_ES5_PKc@plt>:
    10e0:	f3 0f 1e fa          	endbr64 
    10e4:	f2 ff 25 ad 2e 00 00 	bnd jmp QWORD PTR [rip+0x2ead]        # 3f98 <_ZStlsISt11char_traitsIcEERSt13basic_ostreamIcT_ES5_PKc@GLIBCXX_3.4>
    10eb:	0f 1f 44 00 00       	nop    DWORD PTR [rax+rax*1+0x0]

00000000000010f0 <_ZNSolsEPFRSoS_E@plt>:
    10f0:	f3 0f 1e fa          	endbr64 
    10f4:	f2 ff 25 a5 2e 00 00 	bnd jmp QWORD PTR [rip+0x2ea5]        # 3fa0 <_ZNSolsEPFRSoS_E@GLIBCXX_3.4>
    10fb:	0f 1f 44 00 00       	nop    DWORD PTR [rax+rax*1+0x0]

0000000000001100 <__stack_chk_fail@plt>:
    1100:	f3 0f 1e fa          	endbr64 
    1104:	f2 ff 25 9d 2e 00 00 	bnd jmp QWORD PTR [rip+0x2e9d]        # 3fa8 <__stack_chk_fail@GLIBC_2.4>
    110b:	0f 1f 44 00 00       	nop    DWORD PTR [rax+rax*1+0x0]

0000000000001110 <_ZNKSt9basic_iosIcSt11char_traitsIcEEcvbEv@plt>:
    1110:	f3 0f 1e fa          	endbr64 
    1114:	f2 ff 25 95 2e 00 00 	bnd jmp QWORD PTR [rip+0x2e95]        # 3fb0 <_ZNKSt9basic_iosIcSt11char_traitsIcEEcvbEv@GLIBCXX_3.4.21>
    111b:	0f 1f 44 00 00       	nop    DWORD PTR [rax+rax*1+0x0]

0000000000001120 <_ZNSt8ios_base4InitC1Ev@plt>:
    1120:	f3 0f 1e fa          	endbr64 
    1124:	f2 ff 25 8d 2e 00 00 	bnd jmp QWORD PTR [rip+0x2e8d]        # 3fb8 <_ZNSt8ios_base4InitC1Ev@GLIBCXX_3.4>
    112b:	0f 1f 44 00 00       	nop    DWORD PTR [rax+rax*1+0x0]

0000000000001130 <_ZNSolsEi@plt>:
    1130:	f3 0f 1e fa          	endbr64 
    1134:	f2 ff 25 85 2e 00 00 	bnd jmp QWORD PTR [rip+0x2e85]        # 3fc0 <_ZNSolsEi@GLIBCXX_3.4>
    113b:	0f 1f 44 00 00       	nop    DWORD PTR [rax+rax*1+0x0]

Disassembly of section .text:

0000000000001140 <_start>:
    1140:	f3 0f 1e fa          	endbr64 
    1144:	31 ed                	xor    ebp,ebp
    1146:	49 89 d1             	mov    r9,rdx
    1149:	5e                   	pop    rsi
    114a:	48 89 e2             	mov    rdx,rsp
    114d:	48 83 e4 f0          	and    rsp,0xfffffffffffffff0
    1151:	50                   	push   rax
    1152:	54                   	push   rsp
    1153:	4c 8d 05 16 03 00 00 	lea    r8,[rip+0x316]        # 1470 <__libc_csu_fini>
    115a:	48 8d 0d 9f 02 00 00 	lea    rcx,[rip+0x29f]        # 1400 <__libc_csu_init>
    1161:	48 8d 3d c1 00 00 00 	lea    rdi,[rip+0xc1]        # 1229 <main>
    1168:	ff 15 72 2e 00 00    	call   QWORD PTR [rip+0x2e72]        # 3fe0 <__libc_start_main@GLIBC_2.2.5>
    116e:	f4                   	hlt    
    116f:	90                   	nop

0000000000001170 <deregister_tm_clones>:
    1170:	48 8d 3d 99 2e 00 00 	lea    rdi,[rip+0x2e99]        # 4010 <__TMC_END__>
    1177:	48 8d 05 92 2e 00 00 	lea    rax,[rip+0x2e92]        # 4010 <__TMC_END__>
    117e:	48 39 f8             	cmp    rax,rdi
    1181:	74 15                	je     1198 <deregister_tm_clones+0x28>
    1183:	48 8b 05 4e 2e 00 00 	mov    rax,QWORD PTR [rip+0x2e4e]        # 3fd8 <_ITM_deregisterTMCloneTable>
    118a:	48 85 c0             	test   rax,rax
    118d:	74 09                	je     1198 <deregister_tm_clones+0x28>
    118f:	ff e0                	jmp    rax
    1191:	0f 1f 80 00 00 00 00 	nop    DWORD PTR [rax+0x0]
    1198:	c3                   	ret    
    1199:	0f 1f 80 00 00 00 00 	nop    DWORD PTR [rax+0x0]

00000000000011a0 <register_tm_clones>:
    11a0:	48 8d 3d 69 2e 00 00 	lea    rdi,[rip+0x2e69]        # 4010 <__TMC_END__>
    11a7:	48 8d 35 62 2e 00 00 	lea    rsi,[rip+0x2e62]        # 4010 <__TMC_END__>
    11ae:	48 29 fe             	sub    rsi,rdi
    11b1:	48 89 f0             	mov    rax,rsi
    11b4:	48 c1 ee 3f          	shr    rsi,0x3f
    11b8:	48 c1 f8 03          	sar    rax,0x3
    11bc:	48 01 c6             	add    rsi,rax
    11bf:	48 d1 fe             	sar    rsi,1
    11c2:	74 14                	je     11d8 <register_tm_clones+0x38>
    11c4:	48 8b 05 25 2e 00 00 	mov    rax,QWORD PTR [rip+0x2e25]        # 3ff0 <_ITM_registerTMCloneTable>
    11cb:	48 85 c0             	test   rax,rax
    11ce:	74 08                	je     11d8 <register_tm_clones+0x38>
    11d0:	ff e0                	jmp    rax
    11d2:	66 0f 1f 44 00 00    	nop    WORD PTR [rax+rax*1+0x0]
    11d8:	c3                   	ret    
    11d9:	0f 1f 80 00 00 00 00 	nop    DWORD PTR [rax+0x0]

00000000000011e0 <__do_global_dtors_aux>:
    11e0:	f3 0f 1e fa          	endbr64 
    11e4:	80 3d 8d 30 00 00 00 	cmp    BYTE PTR [rip+0x308d],0x0        # 4278 <completed.8060>
    11eb:	75 2b                	jne    1218 <__do_global_dtors_aux+0x38>
    11ed:	55                   	push   rbp
    11ee:	48 83 3d d2 2d 00 00 	cmp    QWORD PTR [rip+0x2dd2],0x0        # 3fc8 <__cxa_finalize@GLIBC_2.2.5>
    11f5:	00 
    11f6:	48 89 e5             	mov    rbp,rsp
    11f9:	74 0c                	je     1207 <__do_global_dtors_aux+0x27>
    11fb:	48 8b 3d 06 2e 00 00 	mov    rdi,QWORD PTR [rip+0x2e06]        # 4008 <__dso_handle>
    1202:	e8 a9 fe ff ff       	call   10b0 <__cxa_finalize@plt>
    1207:	e8 64 ff ff ff       	call   1170 <deregister_tm_clones>
    120c:	c6 05 65 30 00 00 01 	mov    BYTE PTR [rip+0x3065],0x1        # 4278 <completed.8060>
    1213:	5d                   	pop    rbp
    1214:	c3                   	ret    
    1215:	0f 1f 00             	nop    DWORD PTR [rax]
    1218:	c3                   	ret    
    1219:	0f 1f 80 00 00 00 00 	nop    DWORD PTR [rax+0x0]

0000000000001220 <frame_dummy>:
    1220:	f3 0f 1e fa          	endbr64 
    1224:	e9 77 ff ff ff       	jmp    11a0 <register_tm_clones>

0000000000001229 <main>:
    1229:	f3 0f 1e fa          	endbr64 
    122d:	55                   	push   rbp
    122e:	48 89 e5             	mov    rbp,rsp
    1231:	48 83 ec 20          	sub    rsp,0x20
    1235:	64 48 8b 04 25 28 00 	mov    rax,QWORD PTR fs:0x28
    123c:	00 00 
    123e:	48 89 45 f8          	mov    QWORD PTR [rbp-0x8],rax
    1242:	31 c0                	xor    eax,eax
    1244:	c7 45 ec 00 00 00 00 	mov    DWORD PTR [rbp-0x14],0x0
    124b:	c7 45 f0 00 00 00 00 	mov    DWORD PTR [rbp-0x10],0x0
    1252:	48 8d 45 ec          	lea    rax,[rbp-0x14]
    1256:	48 89 c6             	mov    rsi,rax
    1259:	48 8d 3d 00 2f 00 00 	lea    rdi,[rip+0x2f00]        # 4160 <_ZSt3cin@@GLIBCXX_3.4>
    1260:	e8 5b fe ff ff       	call   10c0 <_ZNSirsERi@plt>
    1265:	48 8b 10             	mov    rdx,QWORD PTR [rax]
    1268:	48 83 ea 18          	sub    rdx,0x18
    126c:	48 8b 12             	mov    rdx,QWORD PTR [rdx]
    126f:	48 01 d0             	add    rax,rdx
    1272:	48 89 c7             	mov    rdi,rax
    1275:	e8 96 fe ff ff       	call   1110 <_ZNKSt9basic_iosIcSt11char_traitsIcEEcvbEv@plt>
    127a:	84 c0                	test   al,al
    127c:	0f 84 fd 00 00 00    	je     137f <main+0x156>
    1282:	c7 45 f4 01 00 00 00 	mov    DWORD PTR [rbp-0xc],0x1
    1289:	48 8d 45 f0          	lea    rax,[rbp-0x10]
    128d:	48 89 c6             	mov    rsi,rax
    1290:	48 8d 3d c9 2e 00 00 	lea    rdi,[rip+0x2ec9]        # 4160 <_ZSt3cin@@GLIBCXX_3.4>
    1297:	e8 24 fe ff ff       	call   10c0 <_ZNSirsERi@plt>
    129c:	48 8b 10             	mov    rdx,QWORD PTR [rax]
    129f:	48 83 ea 18          	sub    rdx,0x18
    12a3:	48 8b 12             	mov    rdx,QWORD PTR [rdx]
    12a6:	48 01 d0             	add    rax,rdx
    12a9:	48 89 c7             	mov    rdi,rax
    12ac:	e8 5f fe ff ff       	call   1110 <_ZNKSt9basic_iosIcSt11char_traitsIcEEcvbEv@plt>
    12b1:	84 c0                	test   al,al
    12b3:	74 76                	je     132b <main+0x102>
    12b5:	8b 55 f0             	mov    edx,DWORD PTR [rbp-0x10]
    12b8:	8b 45 ec             	mov    eax,DWORD PTR [rbp-0x14]
    12bb:	39 c2                	cmp    edx,eax
    12bd:	75 06                	jne    12c5 <main+0x9c>
    12bf:	83 45 f4 01          	add    DWORD PTR [rbp-0xc],0x1
    12c3:	eb c4                	jmp    1289 <main+0x60>
    12c5:	8b 45 ec             	mov    eax,DWORD PTR [rbp-0x14]
    12c8:	89 c6                	mov    esi,eax
    12ca:	48 8d 3d 6f 2d 00 00 	lea    rdi,[rip+0x2d6f]        # 4040 <_ZSt4cout@@GLIBCXX_3.4>
    12d1:	e8 5a fe ff ff       	call   1130 <_ZNSolsEi@plt>
    12d6:	48 8d 35 28 0d 00 00 	lea    rsi,[rip+0xd28]        # 2005 <_ZStL19piecewise_construct+0x1>
    12dd:	48 89 c7             	mov    rdi,rax
    12e0:	e8 fb fd ff ff       	call   10e0 <_ZStlsISt11char_traitsIcEERSt13basic_ostreamIcT_ES5_PKc@plt>
    12e5:	48 89 c2             	mov    rdx,rax
    12e8:	8b 45 f4             	mov    eax,DWORD PTR [rbp-0xc]
    12eb:	89 c6                	mov    esi,eax
    12ed:	48 89 d7             	mov    rdi,rdx
    12f0:	e8 3b fe ff ff       	call   1130 <_ZNSolsEi@plt>
    12f5:	48 8d 35 12 0d 00 00 	lea    rsi,[rip+0xd12]        # 200e <_ZStL19piecewise_construct+0xa>
    12fc:	48 89 c7             	mov    rdi,rax
    12ff:	e8 dc fd ff ff       	call   10e0 <_ZStlsISt11char_traitsIcEERSt13basic_ostreamIcT_ES5_PKc@plt>
    1304:	48 89 c2             	mov    rdx,rax
    1307:	48 8b 05 c2 2c 00 00 	mov    rax,QWORD PTR [rip+0x2cc2]        # 3fd0 <_ZSt4endlIcSt11char_traitsIcEERSt13basic_ostreamIT_T0_ES6_@GLIBCXX_3.4>
    130e:	48 89 c6             	mov    rsi,rax
    1311:	48 89 d7             	mov    rdi,rdx
    1314:	e8 d7 fd ff ff       	call   10f0 <_ZNSolsEPFRSoS_E@plt>
    1319:	8b 45 f0             	mov    eax,DWORD PTR [rbp-0x10]
    131c:	89 45 ec             	mov    DWORD PTR [rbp-0x14],eax
    131f:	c7 45 f4 01 00 00 00 	mov    DWORD PTR [rbp-0xc],0x1
    1326:	e9 5e ff ff ff       	jmp    1289 <main+0x60>
    132b:	8b 45 ec             	mov    eax,DWORD PTR [rbp-0x14]
    132e:	89 c6                	mov    esi,eax
    1330:	48 8d 3d 09 2d 00 00 	lea    rdi,[rip+0x2d09]        # 4040 <_ZSt4cout@@GLIBCXX_3.4>
    1337:	e8 f4 fd ff ff       	call   1130 <_ZNSolsEi@plt>
    133c:	48 8d 35 c2 0c 00 00 	lea    rsi,[rip+0xcc2]        # 2005 <_ZStL19piecewise_construct+0x1>
    1343:	48 89 c7             	mov    rdi,rax
    1346:	e8 95 fd ff ff       	call   10e0 <_ZStlsISt11char_traitsIcEERSt13basic_ostreamIcT_ES5_PKc@plt>
    134b:	48 89 c2             	mov    rdx,rax
    134e:	8b 45 f4             	mov    eax,DWORD PTR [rbp-0xc]
    1351:	89 c6                	mov    esi,eax
    1353:	48 89 d7             	mov    rdi,rdx
    1356:	e8 d5 fd ff ff       	call   1130 <_ZNSolsEi@plt>
    135b:	48 8d 35 ac 0c 00 00 	lea    rsi,[rip+0xcac]        # 200e <_ZStL19piecewise_construct+0xa>
    1362:	48 89 c7             	mov    rdi,rax
    1365:	e8 76 fd ff ff       	call   10e0 <_ZStlsISt11char_traitsIcEERSt13basic_ostreamIcT_ES5_PKc@plt>
    136a:	48 89 c2             	mov    rdx,rax
    136d:	48 8b 05 5c 2c 00 00 	mov    rax,QWORD PTR [rip+0x2c5c]        # 3fd0 <_ZSt4endlIcSt11char_traitsIcEERSt13basic_ostreamIT_T0_ES6_@GLIBCXX_3.4>
    1374:	48 89 c6             	mov    rsi,rax
    1377:	48 89 d7             	mov    rdi,rdx
    137a:	e8 71 fd ff ff       	call   10f0 <_ZNSolsEPFRSoS_E@plt>
    137f:	b8 00 00 00 00       	mov    eax,0x0
    1384:	48 8b 4d f8          	mov    rcx,QWORD PTR [rbp-0x8]
    1388:	64 48 33 0c 25 28 00 	xor    rcx,QWORD PTR fs:0x28
    138f:	00 00 
    1391:	74 05                	je     1398 <main+0x16f>
    1393:	e8 68 fd ff ff       	call   1100 <__stack_chk_fail@plt>
    1398:	c9                   	leave  
    1399:	c3                   	ret    

000000000000139a <_Z41__static_initialization_and_destruction_0ii>:
    139a:	f3 0f 1e fa          	endbr64 
    139e:	55                   	push   rbp
    139f:	48 89 e5             	mov    rbp,rsp
    13a2:	48 83 ec 10          	sub    rsp,0x10
    13a6:	89 7d fc             	mov    DWORD PTR [rbp-0x4],edi
    13a9:	89 75 f8             	mov    DWORD PTR [rbp-0x8],esi
    13ac:	83 7d fc 01          	cmp    DWORD PTR [rbp-0x4],0x1
    13b0:	75 32                	jne    13e4 <_Z41__static_initialization_and_destruction_0ii+0x4a>
    13b2:	81 7d f8 ff ff 00 00 	cmp    DWORD PTR [rbp-0x8],0xffff
    13b9:	75 29                	jne    13e4 <_Z41__static_initialization_and_destruction_0ii+0x4a>
    13bb:	48 8d 3d b7 2e 00 00 	lea    rdi,[rip+0x2eb7]        # 4279 <_ZStL8__ioinit>
    13c2:	e8 59 fd ff ff       	call   1120 <_ZNSt8ios_base4InitC1Ev@plt>
    13c7:	48 8d 15 3a 2c 00 00 	lea    rdx,[rip+0x2c3a]        # 4008 <__dso_handle>
    13ce:	48 8d 35 a4 2e 00 00 	lea    rsi,[rip+0x2ea4]        # 4279 <_ZStL8__ioinit>
    13d5:	48 8b 05 1c 2c 00 00 	mov    rax,QWORD PTR [rip+0x2c1c]        # 3ff8 <_ZNSt8ios_base4InitD1Ev@GLIBCXX_3.4>
    13dc:	48 89 c7             	mov    rdi,rax
    13df:	e8 ec fc ff ff       	call   10d0 <__cxa_atexit@plt>
    13e4:	90                   	nop
    13e5:	c9                   	leave  
    13e6:	c3                   	ret    

00000000000013e7 <_GLOBAL__sub_I_main>:
    13e7:	f3 0f 1e fa          	endbr64 
    13eb:	55                   	push   rbp
    13ec:	48 89 e5             	mov    rbp,rsp
    13ef:	be ff ff 00 00       	mov    esi,0xffff
    13f4:	bf 01 00 00 00       	mov    edi,0x1
    13f9:	e8 9c ff ff ff       	call   139a <_Z41__static_initialization_and_destruction_0ii>
    13fe:	5d                   	pop    rbp
    13ff:	c3                   	ret    

0000000000001400 <__libc_csu_init>:
    1400:	f3 0f 1e fa          	endbr64 
    1404:	41 57                	push   r15
    1406:	4c 8d 3d 4b 29 00 00 	lea    r15,[rip+0x294b]        # 3d58 <__frame_dummy_init_array_entry>
    140d:	41 56                	push   r14
    140f:	49 89 d6             	mov    r14,rdx
    1412:	41 55                	push   r13
    1414:	49 89 f5             	mov    r13,rsi
    1417:	41 54                	push   r12
    1419:	41 89 fc             	mov    r12d,edi
    141c:	55                   	push   rbp
    141d:	48 8d 2d 44 29 00 00 	lea    rbp,[rip+0x2944]        # 3d68 <__do_global_dtors_aux_fini_array_entry>
    1424:	53                   	push   rbx
    1425:	4c 29 fd             	sub    rbp,r15
    1428:	48 83 ec 08          	sub    rsp,0x8
    142c:	e8 cf fb ff ff       	call   1000 <_init>
    1431:	48 c1 fd 03          	sar    rbp,0x3
    1435:	74 1f                	je     1456 <__libc_csu_init+0x56>
    1437:	31 db                	xor    ebx,ebx
    1439:	0f 1f 80 00 00 00 00 	nop    DWORD PTR [rax+0x0]
    1440:	4c 89 f2             	mov    rdx,r14
    1443:	4c 89 ee             	mov    rsi,r13
    1446:	44 89 e7             	mov    edi,r12d
    1449:	41 ff 14 df          	call   QWORD PTR [r15+rbx*8]
    144d:	48 83 c3 01          	add    rbx,0x1
    1451:	48 39 dd             	cmp    rbp,rbx
    1454:	75 ea                	jne    1440 <__libc_csu_init+0x40>
    1456:	48 83 c4 08          	add    rsp,0x8
    145a:	5b                   	pop    rbx
    145b:	5d                   	pop    rbp
    145c:	41 5c                	pop    r12
    145e:	41 5d                	pop    r13
    1460:	41 5e                	pop    r14
    1462:	41 5f                	pop    r15
    1464:	c3                   	ret    
    1465:	66 66 2e 0f 1f 84 00 	data16 nop WORD PTR cs:[rax+rax*1+0x0]
    146c:	00 00 00 00 

0000000000001470 <__libc_csu_fini>:
    1470:	f3 0f 1e fa          	endbr64 
    1474:	c3                   	ret    

Disassembly of section .fini:

0000000000001478 <_fini>:
    1478:	f3 0f 1e fa          	endbr64 
    147c:	48 83 ec 08          	sub    rsp,0x8
    1480:	48 83 c4 08          	add    rsp,0x8
    1484:	c3                   	ret    
